; Function Attrs: mustprogress nounwind uwtable
define hidden noundef ptr @_ZN14ExceptionCache12test_addressEPh(ptr noundef nonnull align 8 dereferenceable(288) %0, ptr noundef readnone %1) local_unnamed_addr #0 align 2 {
  %3 = getelementptr inbounds i8, ptr %0, i64 264
  %4 = load volatile i32, ptr %3, align 8
  tail call void asm sideeffect "", "~{memory},~{dirflag},~{fpsr},~{flags}"() #23, !srcloc !6
  %5 = icmp sgt i32 %4, 0
  br i1 %5, label %.lr.ph, label %.loopexit

.lr.ph:                                           ; preds = %2
  %6 = getelementptr inbounds i8, ptr %0, i64 8
  %wide.trip.count = zext nneg i32 %4 to i64
  br label %8

7:                                                ; preds = %8
  %indvars.iv.next = add nuw nsw i64 %indvars.iv, 1
  %exitcond.not = icmp eq i64 %indvars.iv.next, %wide.trip.count
  br i1 %exitcond.not, label %.loopexit, label %8, !llvm.loop !7

8:                                                ; preds = %.lr.ph, %7
  %indvars.iv = phi i64 [ 0, %.lr.ph ], [ %indvars.iv.next, %7 ]
  %9 = getelementptr inbounds [16 x ptr], ptr %6, i64 0, i64 %indvars.iv
  %10 = load ptr, ptr %9, align 8
  %11 = icmp eq ptr %10, %1
  br i1 %11, label %12, label %7

12:                                               ; preds = %8
  %13 = getelementptr inbounds i8, ptr %0, i64 136
  %14 = getelementptr inbounds [16 x ptr], ptr %13, i64 0, i64 %indvars.iv
  %15 = load ptr, ptr %14, align 8
  br label %.loopexit

.loopexit:                                        ; preds = %7, %2, %12
  %.07 = phi ptr [ %15, %12 ], [ null, %2 ], [ null, %7 ]
  ret ptr %.07
}